Open Watcom Linker Version 2.0 beta Apr  8 2026 11:52:41 (32-bit)
Copyright (c) 2002-2026 The Open Watcom Contributors. All Rights Reserved.
Portions Copyright (c) 1985-2002 Sybase, Inc. All Rights Reserved.
Created on:       26/04/17 09:13:31
Executable Image: build/anetirc.exe
creating a DOS executable


                        +------------+
                        |   Groups   |
                        +------------+

Group                           Address              Size
=====                           =======              ====

DGROUP                          0c2b:0000            0000fdb0



                        +--------------+
                        |   Segments   |
                        +--------------+

Segment                Class          Group          Address         Size
=======                =====          =====          =======         ====

BEGTEXT                CODE           AUTO           0000:0000       00000007
_TEXT                  CODE           AUTO           0000:0010       0000c296
FAR_DATA               FAR_DATA       AUTO           0c2a:0006       00000000
_NULL                  BEGDATA        DGROUP         0c2b:0000       00000020
_AFTERNULL             BEGDATA        DGROUP         0c2d:0000       00000002
CONST                  DATA           DGROUP         0c2d:0002       00002abe
CONST2                 DATA           DGROUP         0ed9:0000       000001c9
_DATA                  DATA           DGROUP         0ef5:000a       000003e6
XIB                    DATA           DGROUP         0f34:0000       00000000
XI                     DATA           DGROUP         0f34:0000       00000024
XIE                    DATA           DGROUP         0f36:0004       00000000
YIB                    DATA           DGROUP         0f36:0004       00000000
YI                     DATA           DGROUP         0f36:0004       00000018
YIE                    DATA           DGROUP         0f37:000c       00000000
DATA                   DATA           DGROUP         0f37:000c       00000000
_BSS                   BSS            DGROUP         0f37:000c       00004ce0
STACK                  STACK          DGROUP         1406:0000       00008000


                        +----------------+
                        |   Memory Map   |
                        +----------------+

* = unreferenced symbol
+ = symbol only referenced locally

Address        Symbol
=======        ======

Module: build/obj/main.obj(/mnt/hdd2/AI/anetirc/dosdoor/main.c)
0000:3768      main_
Module: build/obj/fossil.obj(/mnt/hdd2/AI/anetirc/dosdoor/fossil.c)
0000:4a96      fossil_set_port_
0000:4aa3      fossil_set_local_mode_
0000:4ab1      fossil_init_
0000:4aee      fossil_deinit_
0000:4b2f      fossil_getch_nonblock_
0000:4bcc*     fossil_getch_block_
0000:4c16      fossil_putch_
0000:4ca0      fossil_puts_
0000:4cd0      fossil_printf_
0000:4d01      fossil_cls_
Module: build/obj/dropfile.obj(/mnt/hdd2/AI/anetirc/dosdoor/dropfile.c)
0000:4e6a      dropfile_get_path_from_args_
0000:4ee6      dropfile_load_
Module: build/obj/bridge.obj(/mnt/hdd2/AI/anetirc/dosdoor/bridge.c)
0000:5281      bridge_set_node_
0000:52a4      bridge_connect_local_
0000:532b      bridge_close_
0000:5331      bridge_send_line_
0000:538e      bridge_poll_line_
Module: /mnt/hdd2/open/rel/lib286/dos/clibc.lib(stk)
0000:5485      __STK
0000:54a5*     __STKOVERFLOW_
Module: /mnt/hdd2/open/rel/lib286/dos/clibc.lib(strlen.c)
0000:54c0      strlen_
Module: /mnt/hdd2/open/rel/lib286/dos/clibc.lib(memset.c)
0000:54d5      memset_
Module: /mnt/hdd2/open/rel/lib286/dos/clibc.lib(fopen.c)
0000:54ec+     __open_flags_
0000:56cd+     _fsopen_
0000:572e      fopen_
0000:5801*     freopen_
Module: /mnt/hdd2/open/rel/lib286/dos/clibc.lib(_istricm.gas)
0000:586e      stricmp_
Module: /mnt/hdd2/open/rel/lib286/dos/clibc.lib(strchr.c)
0000:5871      strchr_
Module: /mnt/hdd2/open/rel/lib286/dos/clibc.lib(atoi.c)
0000:5893      atoi_
Module: /mnt/hdd2/open/rel/lib286/dos/clibc.lib(fgets.c)
0000:5903      fgets_
Module: /mnt/hdd2/open/rel/lib286/dos/clibc.lib(strtok.c)
0000:5990+     strtok_r_
0000:5a5f      strtok_
Module: /mnt/hdd2/open/rel/lib286/dos/clibc.lib(fclose.c)
0000:5a6d      __doclose_
0000:5b29      __shutdown_stream_
0000:5b40      fclose_
0c2b:7c4c+     ___RmTmpFileFn
Module: /mnt/hdd2/open/rel/lib286/dos/clibc.lib(fprintf.c)
0000:5b8a      fprintf_
Module: /mnt/hdd2/open/rel/lib286/dos/clibc.lib(remove.c)
0000:5ba9      remove_
Module: /mnt/hdd2/open/rel/lib286/dos/clibc.lib(renam.c)
0000:5bac      rename_
Module: /mnt/hdd2/open/rel/lib286/dos/clibc.lib(istable.c)
0c2b:2b7a      __IsTable
Module: /mnt/hdd2/open/rel/lib286/dos/clibc.lib(snprintf.c)
0000:5bf6      vsnprintf_
0000:5c6a      snprintf_
Module: /mnt/hdd2/open/rel/lib286/dos/clibc.lib(memcpy.c)
0000:5c8a      memcpy_
Module: /mnt/hdd2/open/rel/lib286/dos/clibc.lib(sscanf.c)
0000:5cd7+     vsscanf_
0000:5d01      sscanf_
Module: /mnt/hdd2/open/rel/lib286/dos/clibc.lib(_istrnic.gas)
0000:5d20      strnicmp_
Module: /mnt/hdd2/open/rel/lib286/dos/clibc.lib(time.c)
0000:5d23      time_
Module: /mnt/hdd2/open/rel/lib286/dos/clibc.lib(localtim.c)
0000:5d62+     _localtime_
0000:5de9      localtime_
Module: /mnt/hdd2/open/rel/lib286/dos/clibc.lib(delay.c)
0000:5df7      delay_
Module: /mnt/hdd2/open/rel/lib286/dos/clibc.lib(strncmp.c)
0000:5f65      strncmp_
Module: /mnt/hdd2/open/rel/lib286/dos/clibc.lib(tolower.c)
0000:5fa2      tolower_
Module: /mnt/hdd2/open/rel/lib286/dos/clibc.lib(strcmp.c)
0000:5fb0      strcmp_
Module: /mnt/hdd2/open/rel/lib286/dos/clibc.lib(cstart)
0000:0003*     ___begtext
0c2b:0000*     __nullarea
0000:5fd8      _cstart_
0000:6182      __exit_
0000:619f      __do_exit_with_msg_
0000:6265      __GETDS
Module: /mnt/hdd2/open/rel/lib286/dos/clibc.lib(cmodel)
0000:6270      _small_code_
0000:6270*     CodeModelMismatch
Module: /mnt/hdd2/open/rel/lib286/dos/clibc.lib(argcv.c)
0c2b:7c60      __argv
0c2b:7c64      ___argv
0c2b:7c68      __argc
0c2b:7c6a      ___argc
Module: /mnt/hdd2/open/rel/lib286/dos/clibc.lib(intx086.c)
0000:6270+     int86x_
0000:630f      int86_
Module: /mnt/hdd2/open/rel/lib286/dos/clibc.lib(kbhit.c)
0000:6339      kbhit_
Module: /mnt/hdd2/open/rel/lib286/dos/clibc.lib(getch.c)
0000:6354      getch_
Module: /mnt/hdd2/open/rel/lib286/dos/clibc.lib(iob.c)
0c2b:2d3a      ___iob
0c2b:7c6c      ___OpenStreams
0c2b:7c70      ___ClosedStreams
Module: /mnt/hdd2/open/rel/lib286/dos/clibc.lib(fputc.c)
0000:636e      fputc_
Module: /mnt/hdd2/open/rel/lib286/dos/clibc.lib(fseek.c)
0000:64a6      fseek_
Module: /mnt/hdd2/open/rel/lib286/dos/clibc.lib(ftell.c)
0000:65fe      ftell_
Module: /mnt/hdd2/open/rel/lib286/dos/clibc.lib(xmsg.c)
0000:6656*     __exit_with_msg_
0000:6659      __fatal_runtime_error_
Module: /mnt/hdd2/open/rel/lib286/dos/clibc.lib(crwdata)
0c2b:2ea2      __curbrk
0c2b:2eaa      __STACKLOW
0c2b:2eac      __STACKTOP
0c2b:2eae      __cbyte
0c2b:2eb0      __child
0c2b:2eb2      __no87
0c2b:2ebf      ___FPE_handler
0c2b:2ea4      __psp
0c2b:2eb3      __get_ovl_stack
0c2b:2eb7      __restore_ovl_stack
0c2b:2ebb      __close_ovl_file
0c2b:2ec3      __LpCmdLine
0c2b:2ec7      __LpPgmName
0c2b:2ea6      __osmajor
0c2b:2ea7      __osminor
0c2b:2ea8      __osmode
0c2b:2ea9      __HShift
Module: /mnt/hdd2/open/rel/lib286/dos/clibc.lib(comtflag.c)
0c2b:2ecc      __commode
Module: /mnt/hdd2/open/rel/lib286/dos/clibc.lib(errno.c)
0000:6670*     __get_errno_ptr_
0c2b:7c74      _errno
Module: /mnt/hdd2/open/rel/lib286/dos/clibc.lib(textmode.c)
0c2b:2ece      __fmode
Module: /mnt/hdd2/open/rel/lib286/dos/clibc.lib(open.c)
0000:685d*     open_
0000:6883      _sopen_
Module: /mnt/hdd2/open/rel/lib286/dos/clibc.lib(chktty.c)
0000:68a2      __chktty_
Module: /mnt/hdd2/open/rel/lib286/dos/clibc.lib(freefp.c)
0000:68cb      __freefp_
0000:6940      __purgefp_
Module: /mnt/hdd2/open/rel/lib286/dos/clibc.lib(allocfp.c)
0000:697a      __allocfp_
Module: /mnt/hdd2/open/rel/lib286/dos/clibc.lib(stricmp.c)
0000:6a8e      _stricmp_
Module: /mnt/hdd2/open/rel/lib286/dos/clibc.lib(fgetc.c)
0000:6ac9+     __fill_buffer_
0000:6bb3      fgetc_
Module: /mnt/hdd2/open/rel/lib286/dos/clibc.lib(setbits.c)
0000:6c55      __setbits_
Module: /mnt/hdd2/open/rel/lib286/dos/clibc.lib(bits.c)
0c2b:2c7c      __Bits
Module: /mnt/hdd2/open/rel/lib286/dos/clibc.lib(__lseek.c)
0000:6ca1      __lseek_
Module: /mnt/hdd2/open/rel/lib286/dos/clibc.lib(_clse.c)
0000:6cdf      __close_
Module: /mnt/hdd2/open/rel/lib286/dos/clibc.lib(ffree.c)
0000:6d08      _ffree_
0000:6d08      free_
Module: /mnt/hdd2/open/rel/lib286/dos/clibc.lib(flush.c)
0000:6d4c      __flush_
0000:6d4c*     __clib_flush_
Module: /mnt/hdd2/open/rel/lib286/dos/clibc.lib(fprtf.c)
0000:6e96      __fprtf_
Module: /mnt/hdd2/open/rel/lib286/dos/clibc.lib(unlnk.c)
0000:6f57      unlink_
Module: /mnt/hdd2/open/rel/lib286/dos/clibc.lib(doserror)
0000:6f64      __doserror_
0000:6f70      __doserror1_
Module: /mnt/hdd2/open/rel/lib286/dos/clibc.lib(prtf.c)
0000:7a9d      __prtf_
Module: /mnt/hdd2/open/rel/lib286/dos/clibc.lib(scnf.c)
0000:8a06      __scnf_
Module: /mnt/hdd2/open/rel/lib286/dos/clibc.lib(strnicmp.c)
0000:8c6b      _strnicmp_
Module: /mnt/hdd2/open/rel/lib286/dos/clibc.lib(gtctm.c)
0000:8cba      __getctime_
Module: /mnt/hdd2/open/rel/lib286/dos/clibc.lib(mktime.c)
0000:8d43      mktime_
Module: /mnt/hdd2/open/rel/lib286/dos/clibc.lib(tzset.c)
0c2b:2ed0      ___start_dst
0c2b:2ee2      ___end_dst
0c2b:2ff6*     _tzname
0c2b:2ffe      _timezone
0c2b:3002      _daylight
0c2b:3004      ___dst_adjust
0000:8df8*     __DontCacheOSTZ_
0000:8e11*     __CacheOSTZ_
0000:9353+     __parse_tz_
0000:949f      tzset_
Module: /mnt/hdd2/open/rel/lib286/dos/clibc.lib(gmtime.c)
0000:950d      __brktime_
0000:9659+     _gmtime_
0000:967c*     gmtime_
Module: /mnt/hdd2/open/rel/lib286/dos/clibc.lib(timeutil.c)
0000:97b8      __isindst_
Module: /mnt/hdd2/open/rel/lib286/dos/clibc.lib(i4m)
0000:9aa6      __I4M
0000:9aa6      __U4M
Module: /mnt/hdd2/open/rel/lib286/dos/clibc.lib(cmain086.c)
0000:9abe      __CMain
Module: /mnt/hdd2/open/rel/lib286/dos/clibc.lib(initrtns.c)
0000:9b08      __InitRtns
0000:9b5f      __FiniRtns
Module: /mnt/hdd2/open/rel/lib286/dos/clibc.lib(uselfn.c)
0c2b:302c      ___uselfn
Module: /mnt/hdd2/open/rel/lib286/dos/clibc.lib(dosseg)
0000:9bc0      __DOSseg__
Module: /mnt/hdd2/open/rel/lib286/dos/clibc.lib(initargv.c)
0000:9db7      __Init_Argv_
0000:9e13      __Fini_Argv_
Module: /mnt/hdd2/open/rel/lib286/dos/clibc.lib(dointr)
0000:9e36      _DoINTR_
Module: /mnt/hdd2/open/rel/lib286/dos/clibc.lib(segread.c)
0000:a1ab      segread_
Module: /mnt/hdd2/open/rel/lib286/dos/clibc.lib(initfile.c)
0000:a1cb      __InitFiles_
Module: /mnt/hdd2/open/rel/lib286/dos/clibc.lib(ioexit.c)
0000:a31e*     fcloseall_
0000:a324      __full_io_exit_
Module: /mnt/hdd2/open/rel/lib286/dos/clibc.lib(ioalloc.c)
0000:a32c      __ioalloc_
Module: /mnt/hdd2/open/rel/lib286/dos/clibc.lib(lseek.c)
0000:a3c2      lseek_
Module: /mnt/hdd2/open/rel/lib286/dos/clibc.lib(tell.c)
0000:a3ed      _tell_
Module: /mnt/hdd2/open/rel/lib286/dos/clibc.lib(fflush.c)
0000:a3fc      fflush_
Module: /mnt/hdd2/open/rel/lib286/dos/clibc.lib(enterdb.c)
0000:a40d      __EnterWVIDEO_
0c2b:302e+     __WD_Present
Module: /mnt/hdd2/open/rel/lib286/dos/clibc.lib(opendos.c)
0000:a431      _dos_open_
Module: /mnt/hdd2/open/rel/lib286/dos/clibc.lib(iomode.c)
0000:a455      __GetIOMode_
0000:a47a      __SetIOMode_
0c2b:3030      ___NFiles
0c2b:3032      ___init_mode
0c2b:305a      ___io_mode
Module: /mnt/hdd2/open/rel/lib286/dos/clibc.lib(isatt.c)
0000:a49d      isatty_
Module: /mnt/hdd2/open/rel/lib286/dos/clibc.lib(doserrno.c)
0000:a4c3*     __get_doserrno_ptr_
0c2b:7c8c      __doserrno
Module: /mnt/hdd2/open/rel/lib286/dos/clibc.lib(umaskval.c)
0c2b:305e      ___umaskval
Module: /mnt/hdd2/open/rel/lib286/dos/clibc.lib(creatdos.c)
0000:a4ca      _dos_creat_
0000:a4ec*     _dos_creatnew_
Module: /mnt/hdd2/open/rel/lib286/dos/clibc.lib(stiomode.c)
0000:a50b+     __grow_iomode_
0000:a5ed      __SetIOMode_grow_
Module: /mnt/hdd2/open/rel/lib286/dos/clibc.lib(dosret.c)
0000:a645      __set_errno_dos_
0000:a69f*     __set_errno_dos_reterr_
Module: /mnt/hdd2/open/rel/lib286/dos/clibc.lib(fmalloc.c)
0000:a6a9      _fmalloc_
0000:a6a9      malloc_
0c2b:3074+     ___fheapbeg
0c2b:3076      ___fheapRover
0c2b:3078      ___LargestSizeB4Rover
Module: /mnt/hdd2/open/rel/lib286/dos/clibc.lib(flushall.c)
0000:a7ad      __flushall_
0000:a808      flushall_
Module: /mnt/hdd2/open/rel/lib286/dos/clibc.lib(gtche.c)
0000:a80d      getche_
Module: /mnt/hdd2/open/rel/lib286/dos/clibc.lib(qread.c)
0000:a827      __qread_
Module: /mnt/hdd2/open/rel/lib286/dos/clibc.lib(nmalloc.c)
0000:a845      _nmalloc_
0c2b:307a      ___nheapbeg
0c2b:307c      ___MiniHeapRover
0c2b:307e      ___LargestSizeB4MiniHeapRover
Module: /mnt/hdd2/open/rel/lib286/dos/clibc.lib(mem.c)
0000:a920      __MemAllocator
0000:a9e6      __MemFree
Module: /mnt/hdd2/open/rel/lib286/dos/clibc.lib(nfree.c)
0000:ab5d      _nfree_
0c2b:7c90+     ___MiniHeapFreeRover
Module: /mnt/hdd2/open/rel/lib286/dos/clibc.lib(qwrit.c)
0000:ac57      __qwrite_
Module: /mnt/hdd2/open/rel/lib286/dos/clibc.lib(fsync.c)
0000:acb3      fsync_
Module: /mnt/hdd2/open/rel/lib286/dos/clibc.lib(wctomb.c)
0000:acb6      wctomb_
Module: /mnt/hdd2/open/rel/lib286/dos/clibc.lib(itoa.c)
0000:acdf+     utoa_
0000:ad3c      itoa_
Module: /mnt/hdd2/open/rel/lib286/dos/clibc.lib(noefgfmt.c)
0c2b:3080      ___EFG_printf
0c2b:3082      ___EFG_scanf
Module: /mnt/hdd2/open/rel/lib286/dos/clibc.lib(lltoa.c)
0000:ad6d      ulltoa_
0000:ae51*     lltoa_
Module: /mnt/hdd2/open/rel/lib286/dos/clibc.lib(strupr.c)
0000:aeb2      _strupr_
Module: /mnt/hdd2/open/rel/lib286/dos/clibc.lib(ltoa.c)
0000:aed4      ultoa_
0000:af43*     ltoa_
Module: /mnt/hdd2/open/rel/lib286/dos/clibc.lib(mbislead.c)
0000:af71      _ismbblead_
0c2b:7c92      ___MBCSIsTable
Module: /mnt/hdd2/open/rel/lib286/dos/clibc.lib(isdigit.c)
0000:af8b      isdigit_
Module: /mnt/hdd2/open/rel/lib286/dos/clibc.lib(isspace.c)
0000:afb4      isspace_
Module: /mnt/hdd2/open/rel/lib286/dos/clibc.lib(mbtowc.c)
0000:afdd      mbtowc_
Module: /mnt/hdd2/open/rel/lib286/dos/clibc.lib(fdfs086)
0000:b078      __FDFS
Module: /mnt/hdd2/open/rel/lib286/dos/clibc.lib(i4d)
0000:b0c0*     __I4D
0000:b109      __U4D
Module: /mnt/hdd2/open/rel/lib286/dos/clibc.lib(i8m086)
0000:b1a8*     __I8M
0000:b1a8      __U8M
0000:b18e*     __I8ME
0000:b18e*     __U8ME
Module: /mnt/hdd2/open/rel/lib286/dos/clibc.lib(locmktim.c)
0000:b2f2      __local_mktime_
Module: /mnt/hdd2/open/rel/lib286/dos/clibc.lib(leapyear.c)
0000:b4ad      ___diyr
0000:b4c7      ___dilyr
0000:b4e1      __leapyear_
Module: /mnt/hdd2/open/rel/lib286/dos/clibc.lib(getenv.c)
0000:b50b      getenv_
Module: /mnt/hdd2/open/rel/lib286/dos/clibc.lib(___argc.c)
0c2b:7d94      ____Argv
0c2b:7d98      ____Argc
Module: /mnt/hdd2/open/rel/lib286/dos/clibc.lib(exit.c)
0000:b5c6+     __null_int23_exit_
0000:b5c7      exit_
0000:b5f2*     _exit_
0c2b:3084+     ___int23_exit
0c2b:3086+     ___FPE_handler_exit
Module: /mnt/hdd2/open/rel/lib286/dos/clibc.lib(sgdef086)
0c2b:3090      __Start_XI
0c2b:30b4      __End_XI
0c2b:30b4      __Start_YI
0c2b:30cc      __End_YI
Module: /mnt/hdd2/open/rel/lib286/dos/clibc.lib(histsplt.c)
0c2b:7d9a      ___historical_splitparms
Module: /mnt/hdd2/open/rel/lib286/dos/clibc.lib(frealloc.c)
0000:b60c*     _frealloc_
0000:b60c      realloc_
Module: /mnt/hdd2/open/rel/lib286/dos/clibc.lib(iomodtty.c)
0000:b6bc      __ChkTTYIOMode_
Module: /mnt/hdd2/open/rel/lib286/dos/clibc.lib(growseg.c)
0000:b6f8      __GrowSeg_
Module: /mnt/hdd2/open/rel/lib286/dos/clibc.lib(allocseg.c)
0000:b7c7      __AllocSeg_
Module: /mnt/hdd2/open/rel/lib286/dos/clibc.lib(fmemneed.c)
0000:b866      __fmemneed_
Module: /mnt/hdd2/open/rel/lib286/dos/clibc.lib(heapgrow.c)
0000:b869*     _heapgrow_
0000:b869*     _fheapgrow_
0000:b86a      _nheapgrow_
Module: /mnt/hdd2/open/rel/lib286/dos/clibc.lib(nmemneed.c)
0000:b8db      __nmemneed_
Module: /mnt/hdd2/open/rel/lib286/dos/clibc.lib(grownear.c)
0000:b95d      __LastFree_
0000:b9d4      __ExpandDGROUP_
Module: /mnt/hdd2/open/rel/lib286/dos/clibc.lib(filedos.c)
0000:bad5*     _dos_close_
0000:bae1      _dos_commit_
Module: /mnt/hdd2/open/rel/lib286/dos/clibc.lib(alphabet.c)
0c2b:2c84      ___Alphabet
Module: /mnt/hdd2/open/rel/lib286/dos/clibc.lib(mbinit.c)
0000:bb52      __mbinit_
0c2b:3088      ___MBCodePage
Module: /mnt/hdd2/open/rel/lib286/dos/clibc.lib(environ.c)
0c2b:7d9c      ___env_mask
0c2b:7da0      _environ
0c2b:7da4      __wenviron
Module: /mnt/hdd2/open/rel/lib286/dos/clibc.lib(mbterm.c)
0000:bbc7      _mbterm_
Module: /mnt/hdd2/open/rel/lib286/dos/clibc.lib(mbsnextc.c)
0000:bbf1      _mbsnextc_
Module: /mnt/hdd2/open/rel/lib286/dos/clibc.lib(mbcupper.c)
0000:bc14      _mbctoupper_
Module: /mnt/hdd2/open/rel/lib286/dos/clibc.lib(mbsinc.c)
0000:bc33      _mbsinc_
Module: /mnt/hdd2/open/rel/lib286/dos/clibc.lib(fmsize.c)
0000:bc55*     _msize_
0000:bc55      _fmsize_
Module: /mnt/hdd2/open/rel/lib286/dos/clibc.lib(nexpand.c)
0000:bc66      _nexpand_
Module: /mnt/hdd2/open/rel/lib286/dos/clibc.lib(fmemcpy.c)
0000:bcb2      _fmemcpy_
Module: /mnt/hdd2/open/rel/lib286/dos/clibc.lib(fexpand.c)
0000:bcd7      _fexpand_
0000:bcd7*     _expand_
Module: /mnt/hdd2/open/rel/lib286/dos/clibc.lib(heapen.c)
0000:bd08*     _heapenable_
0c2b:308a      ___heap_enabled
Module: /mnt/hdd2/open/rel/lib286/dos/clibc.lib(amblksiz.c)
0c2b:308c      __amblksiz
Module: /mnt/hdd2/open/rel/lib286/dos/clibc.lib(sbrk.c)
0000:bd19      __brk_
0000:bd7e*     sbrk_
Module: /mnt/hdd2/open/rel/lib286/dos/clibc.lib(mbisdbcs.c)
0c2b:308e      ___IsDBCS
Module: /mnt/hdd2/open/rel/lib286/dos/clibc.lib(getltdos.c)
0000:bd8d      dos_get_dbcs_lead_table_
Module: /mnt/hdd2/open/rel/lib286/dos/clibc.lib(getcpdos.c)
0000:bdb6      dos_get_code_page_
Module: /mnt/hdd2/open/rel/lib286/dos/clibc.lib(setenvp.c)
0000:bde0      __setenvp_
0000:bedd      __freeenvp_
Module: /mnt/hdd2/open/rel/lib286/dos/clibc.lib(mbdtoupp.c)
0000:bf59      _mbdtoupper_
Module: /mnt/hdd2/open/rel/lib286/dos/clibc.lib(toupper.c)
0000:bf67      toupper_
Module: /mnt/hdd2/open/rel/lib286/dos/clibc.lib(_expand.c)
0000:bf75      __HeapManager_expand_
Module: /mnt/hdd2/open/rel/lib286/dos/clibc.lib(bexpand.c)
0000:c0f3      _bexpand_
Module: /mnt/hdd2/open/rel/lib286/dos/clibc.lib(clearenv.c)
0000:c148      clearenv_
Module: /mnt/hdd2/open/rel/lib286/dos/clibc.lib(bfree.c)
0000:c285      _bfree_


                        +--------------------+
                        |   Libraries Used   |
                        +--------------------+

/mnt/hdd2/open/rel/lib286/dos/clibc.lib


                        +-----------------------+
                        |   Linker Statistics   |
                        +-----------------------+

Stack size:  8000 (32768.)
Memory size:  0001c060 (114784.)
Entry point address: 0000:5fd8
Link time: 00:00.00
